target datalayout = "e-m:e-p270:32:32-p271:32:32-p272:64:64-i64:64-i128:128-f80:128-n8:16:32:64-S128"
target triple = "x86_64-pc-linux-gnu"

%"class.Ipopt::IpoptCalculatedQuantities" = type <{ %"class.Ipopt::ReferencedObject.base", [4 x i8], %"class.Ipopt::SmartPtr.10", %"class.Ipopt::SmartPtr.11", %"class.Ipopt::SmartPtr.12", double, double, double, i32, i8, [3 x i8], double, %"class.Ipopt::CachedResults", %"class.Ipopt::CachedResults", %"class.Ipopt::CachedResults", %"class.Ipopt::CachedResults", %"class.Ipopt::CachedResults", %"class.Ipopt::CachedResults", %"class.Ipopt::CachedResults", %"class.Ipopt::CachedResults", i32, i32, i32, i32, %"class.Ipopt::CachedResults.13", %"class.Ipopt::CachedResults.13", %"class.Ipopt::CachedResults.14", %"class.Ipopt::CachedResults.14", %"class.Ipopt::CachedResults.13", %"class.Ipopt::CachedResults.13", %"class.Ipopt::CachedResults.14", %"class.Ipopt::CachedResults.14", %"class.Ipopt::CachedResults.14", %"class.Ipopt::CachedResults.14", %"class.Ipopt::CachedResults.14", %"class.Ipopt::CachedResults.14", %"class.Ipopt::CachedResults.14", %"class.Ipopt::CachedResults.14", %"class.Ipopt::CachedResults.14", %"class.Ipopt::CachedResults.14", %"class.Ipopt::CachedResults.15", %"class.Ipopt::CachedResults.15", %"class.Ipopt::CachedResults.15", %"class.Ipopt::CachedResults.15", %"class.Ipopt::CachedResults.14", %"class.Ipopt::CachedResults.14", %"class.Ipopt::CachedResults.14", %"class.Ipopt::CachedResults.14", %"class.Ipopt::CachedResults.14", %"class.Ipopt::CachedResults.14", %"class.Ipopt::CachedResults.13", %"class.Ipopt::CachedResults.13", %"class.Ipopt::CachedResults.13", %"class.Ipopt::CachedResults.13", %"class.Ipopt::CachedResults.13", %"class.Ipopt::CachedResults.16", %"class.Ipopt::CachedResults.14", %"class.Ipopt::CachedResults.14", %"class.Ipopt::CachedResults.14", %"class.Ipopt::CachedResults.14", %"class.Ipopt::CachedResults.14", %"class.Ipopt::CachedResults.14", %"class.Ipopt::CachedResults.14", %"class.Ipopt::CachedResults.14", %"class.Ipopt::CachedResults.14", %"class.Ipopt::CachedResults.14", %"class.Ipopt::CachedResults.14", %"class.Ipopt::CachedResults.14", %"class.Ipopt::CachedResults.14", %"class.Ipopt::CachedResults.14", %"class.Ipopt::CachedResults.14", %"class.Ipopt::CachedResults.14", %"class.Ipopt::CachedResults.14", %"class.Ipopt::CachedResults.14", %"class.Ipopt::CachedResults.13", %"class.Ipopt::CachedResults.13", %"class.Ipopt::CachedResults.13", %"class.Ipopt::CachedResults.13", %"class.Ipopt::CachedResults.13", %"class.Ipopt::CachedResults.13", %"class.Ipopt::CachedResults.13", %"class.Ipopt::CachedResults.13", %"class.Ipopt::CachedResults.13", %"class.Ipopt::CachedResults.13", %"class.Ipopt::CachedResults.13", %"class.Ipopt::CachedResults.13", %"class.Ipopt::CachedResults.13", %"class.Ipopt::CachedResults.17", %"class.Ipopt::CachedResults.13", %"class.Ipopt::CachedResults", %"class.Ipopt::CachedResults", %"class.Ipopt::CachedResults.13", %"class.Ipopt::CachedResults.13", %"class.Ipopt::CachedResults.13", %"class.Ipopt::CachedResults.14", %"class.Ipopt::CachedResults.14", %"class.Ipopt::CachedResults.13", %"class.Ipopt::CachedResults.13", %"class.Ipopt::CachedResults.13", %"class.Ipopt::SmartPtr.18", %"class.Ipopt::SmartPtr.18", %"class.Ipopt::SmartPtr.18", %"class.Ipopt::SmartPtr.18", %"class.Ipopt::SmartPtr.18", %"class.Ipopt::SmartPtr.18", %"class.Ipopt::SmartPtr.18", %"class.Ipopt::SmartPtr.18", %"class.Ipopt::SmartPtr.18", %"class.Ipopt::SmartPtr.18", %"class.Ipopt::SmartPtr.18", %"class.Ipopt::SmartPtr.18", i8, [7 x i8] }>
%"class.Ipopt::ReferencedObject.base" = type <{ ptr, i32 }>
%"class.Ipopt::SmartPtr.10" = type { ptr }
%"class.Ipopt::SmartPtr.11" = type { ptr }
%"class.Ipopt::SmartPtr.12" = type { ptr }
%"class.Ipopt::CachedResults.15" = type { ptr, i32, ptr }
%"class.Ipopt::CachedResults.16" = type { ptr, i32, ptr }
%"class.Ipopt::CachedResults.17" = type { ptr, i32, ptr }
%"class.Ipopt::CachedResults" = type { ptr, i32, ptr }
%"class.Ipopt::CachedResults.14" = type { ptr, i32, ptr }
%"class.Ipopt::CachedResults.13" = type { ptr, i32, ptr }
%"class.Ipopt::SmartPtr.18" = type { ptr }
%"class.Ipopt::ReferencedObject" = type <{ ptr, i32, [4 x i8] }>
%"class.Ipopt::SmartPtr.44" = type { ptr }
%"class.Ipopt::SmartPtr.49" = type { ptr }
%"class.Ipopt::IpoptNLP" = type { %"class.Ipopt::ReferencedObject.base", %"class.Ipopt::SmartPtr.49" }

; Function Attrs: inlinehint mustprogress nounwind uwtable
define linkonce_odr void @_ZNK5Ipopt16ReferencedObject6AddRefEPKNS_10ReferencerE(ptr noundef nonnull align 8 dereferenceable(12) %0, ptr noundef %1) #11 comdat align 2 {
  %3 = alloca ptr, align 8
  %4 = alloca ptr, align 8
  store ptr %0, ptr %3, align 8, !tbaa !51
  store ptr %1, ptr %4, align 8, !tbaa !235
  %5 = load ptr, ptr %3, align 8
  %6 = getelementptr inbounds nuw %"class.Ipopt::ReferencedObject", ptr %5, i32 0, i32 1
  %7 = load i32, ptr %6, align 8, !tbaa !53
  %8 = add nsw i32 %7, 1
  store i32 %8, ptr %6, align 8, !tbaa !53
  ret void
}

; Function Attrs: mustprogress uwtable
define linkonce_odr noundef nonnull align 8 dereferenceable(8) ptr @_ZN5Ipopt8SmartPtrINS_16NLPScalingObjectEE14SetFromRawPtr_EPS1_(ptr noundef nonnull align 8 dereferenceable(8) %0, ptr noundef %1) #6 comdat align 2 {
  %3 = alloca ptr, align 8
  %4 = alloca ptr, align 8
  store ptr %0, ptr %3, align 8, !tbaa !207
  store ptr %1, ptr %4, align 8, !tbaa !291
  %5 = load ptr, ptr %3, align 8
  %6 = load ptr, ptr %4, align 8, !tbaa !291
  %7 = icmp ne ptr %6, null
  br i1 %7, label %8, label %10

8:                                                ; preds = %2
  %9 = load ptr, ptr %4, align 8, !tbaa !291
  call void @_ZNK5Ipopt16ReferencedObject6AddRefEPKNS_10ReferencerE(ptr noundef nonnull align 8 dereferenceable(12) %9, ptr noundef %5)
  br label %10

10:                                               ; preds = %8, %2
  call void @_ZN5Ipopt8SmartPtrINS_16NLPScalingObjectEE15ReleasePointer_Ev(ptr noundef nonnull align 8 dereferenceable(8) %5)
  %11 = load ptr, ptr %4, align 8, !tbaa !291
  %12 = getelementptr inbounds nuw %"class.Ipopt::SmartPtr.49", ptr %5, i32 0, i32 0
  store ptr %11, ptr %12, align 8, !tbaa !209
  ret ptr %5
}

; Function Attrs: mustprogress nounwind uwtable
define linkonce_odr noundef ptr @_ZN5Ipopt9GetRawPtrINS_16NLPScalingObjectEEEPT_RKNS_8SmartPtrIS2_EE(ptr noundef nonnull align 8 dereferenceable(8) %0) #4 comdat {
  %2 = alloca ptr, align 8
  store ptr %0, ptr %2, align 8, !tbaa !207
  %3 = load ptr, ptr %2, align 8, !tbaa !207
  %4 = getelementptr inbounds nuw %"class.Ipopt::SmartPtr.49", ptr %3, i32 0, i32 0
  %5 = load ptr, ptr %4, align 8, !tbaa !209
  ret ptr %5
}

; Function Attrs: inlinehint mustprogress nounwind uwtable
define linkonce_odr noundef i32 @_ZNK5Ipopt16ReferencedObject14ReferenceCountEv(ptr noundef nonnull align 8 dereferenceable(12) %0) #11 comdat align 2 {
  %2 = alloca ptr, align 8
  store ptr %0, ptr %2, align 8, !tbaa !51
  %3 = load ptr, ptr %2, align 8
  %4 = getelementptr inbounds nuw %"class.Ipopt::ReferencedObject", ptr %3, i32 0, i32 1
  %5 = load i32, ptr %4, align 8, !tbaa !53
  ret i32 %5
}

; Function Attrs: inlinehint mustprogress nounwind uwtable
define linkonce_odr void @_ZNK5Ipopt16ReferencedObject10ReleaseRefEPKNS_10ReferencerE(ptr noundef nonnull align 8 dereferenceable(12) %0, ptr noundef %1) #11 comdat align 2 {
  %3 = alloca ptr, align 8
  %4 = alloca ptr, align 8
  store ptr %0, ptr %3, align 8, !tbaa !51
  store ptr %1, ptr %4, align 8, !tbaa !235
  %5 = load ptr, ptr %3, align 8
  %6 = getelementptr inbounds nuw %"class.Ipopt::ReferencedObject", ptr %5, i32 0, i32 1
  %7 = load i32, ptr %6, align 8, !tbaa !53
  %8 = add nsw i32 %7, -1
  store i32 %8, ptr %6, align 8, !tbaa !53
  ret void
}

; Function Attrs: mustprogress uwtable
define linkonce_odr noundef nonnull align 8 dereferenceable(8) ptr @_ZN5Ipopt8SmartPtrINS_16NLPScalingObjectEE16SetFromSmartPtr_ERKS2_(ptr noundef nonnull align 8 dereferenceable(8) %0, ptr noundef nonnull align 8 dereferenceable(8) %1) #6 comdat align 2 {
  %3 = alloca ptr, align 8
  %4 = alloca ptr, align 8
  store ptr %0, ptr %3, align 8, !tbaa !207
  store ptr %1, ptr %4, align 8, !tbaa !207
  %5 = load ptr, ptr %3, align 8
  %6 = load ptr, ptr %4, align 8, !tbaa !207
  %7 = call noundef ptr @_ZN5Ipopt9GetRawPtrINS_16NLPScalingObjectEEEPT_RKNS_8SmartPtrIS2_EE(ptr noundef nonnull align 8 dereferenceable(8) %6)
  %8 = call noundef nonnull align 8 dereferenceable(8) ptr @_ZN5Ipopt8SmartPtrINS_16NLPScalingObjectEE14SetFromRawPtr_EPS1_(ptr noundef nonnull align 8 dereferenceable(8) %5, ptr noundef %7)
  ret ptr %5
}

; Function Attrs: mustprogress nounwind uwtable
define linkonce_odr void @_ZN5Ipopt8SmartPtrINS_16NLPScalingObjectEE15ReleasePointer_Ev(ptr noundef nonnull align 8 dereferenceable(8) %0) #4 comdat align 2 {
  %2 = alloca ptr, align 8
  store ptr %0, ptr %2, align 8, !tbaa !207
  %3 = load ptr, ptr %2, align 8
  %4 = getelementptr inbounds nuw %"class.Ipopt::SmartPtr.49", ptr %3, i32 0, i32 0
  %5 = load ptr, ptr %4, align 8, !tbaa !209
  %6 = icmp ne ptr %5, null
  br i1 %6, label %7, label %25

7:                                                ; preds = %1
  %8 = getelementptr inbounds nuw %"class.Ipopt::SmartPtr.49", ptr %3, i32 0, i32 0
  %9 = load ptr, ptr %8, align 8, !tbaa !209
  call void @_ZNK5Ipopt16ReferencedObject10ReleaseRefEPKNS_10ReferencerE(ptr noundef nonnull align 8 dereferenceable(12) %9, ptr noundef %3)
  %10 = getelementptr inbounds nuw %"class.Ipopt::SmartPtr.49", ptr %3, i32 0, i32 0
  %11 = load ptr, ptr %10, align 8, !tbaa !209
  %12 = call noundef i32 @_ZNK5Ipopt16ReferencedObject14ReferenceCountEv(ptr noundef nonnull align 8 dereferenceable(12) %11)
  %13 = icmp eq i32 %12, 0
  br i1 %13, label %14, label %24

14:                                               ; preds = %7
  %15 = getelementptr inbounds nuw %"class.Ipopt::SmartPtr.49", ptr %3, i32 0, i32 0
  %16 = load ptr, ptr %15, align 8, !tbaa !209
  %17 = icmp eq ptr %16, null
  br i1 %17, label %22, label %18

18:                                               ; preds = %14
  %19 = load ptr, ptr %16, align 8, !tbaa !18
  %20 = getelementptr inbounds ptr, ptr %19, i64 1
  %21 = load ptr, ptr %20, align 8
  call void %21(ptr noundef nonnull align 8 dereferenceable(24) %16) #3
  br label %22

22:                                               ; preds = %18, %14
  %23 = getelementptr inbounds nuw %"class.Ipopt::SmartPtr.49", ptr %3, i32 0, i32 0
  store ptr null, ptr %23, align 8, !tbaa !209
  br label %24

24:                                               ; preds = %22, %7
  br label %25

25:                                               ; preds = %24, %1
  ret void
}

; Function Attrs: mustprogress nounwind uwtable
define linkonce_odr void @_ZN5Ipopt8SmartPtrIKNS_6VectorEE15ReleasePointer_Ev(ptr noundef nonnull align 8 dereferenceable(8) %0) #4 comdat align 2 {
  %2 = alloca ptr, align 8
  store ptr %0, ptr %2, align 8, !tbaa !164
  %3 = load ptr, ptr %2, align 8
  %4 = getelementptr inbounds nuw %"class.Ipopt::SmartPtr.44", ptr %3, i32 0, i32 0
  %5 = load ptr, ptr %4, align 8, !tbaa !165
  %6 = icmp ne ptr %5, null
  br i1 %6, label %7, label %25

7:                                                ; preds = %1
  %8 = getelementptr inbounds nuw %"class.Ipopt::SmartPtr.44", ptr %3, i32 0, i32 0
  %9 = load ptr, ptr %8, align 8, !tbaa !165
  call void @_ZNK5Ipopt16ReferencedObject10ReleaseRefEPKNS_10ReferencerE(ptr noundef nonnull align 8 dereferenceable(12) %9, ptr noundef %3)
  %10 = getelementptr inbounds nuw %"class.Ipopt::SmartPtr.44", ptr %3, i32 0, i32 0
  %11 = load ptr, ptr %10, align 8, !tbaa !165
  %12 = call noundef i32 @_ZNK5Ipopt16ReferencedObject14ReferenceCountEv(ptr noundef nonnull align 8 dereferenceable(12) %11)
  %13 = icmp eq i32 %12, 0
  br i1 %13, label %14, label %24

14:                                               ; preds = %7
  %15 = getelementptr inbounds nuw %"class.Ipopt::SmartPtr.44", ptr %3, i32 0, i32 0
  %16 = load ptr, ptr %15, align 8, !tbaa !165
  %17 = icmp eq ptr %16, null
  br i1 %17, label %22, label %18

18:                                               ; preds = %14
  %19 = load ptr, ptr %16, align 8, !tbaa !18
  %20 = getelementptr inbounds ptr, ptr %19, i64 1
  %21 = load ptr, ptr %20, align 8
  call void %21(ptr noundef nonnull align 8 dereferenceable(205) %16) #3
  br label %22

22:                                               ; preds = %18, %14
  %23 = getelementptr inbounds nuw %"class.Ipopt::SmartPtr.44", ptr %3, i32 0, i32 0
  store ptr null, ptr %23, align 8, !tbaa !165
  br label %24

24:                                               ; preds = %22, %7
  br label %25

25:                                               ; preds = %24, %1
  ret void
}

; Function Attrs: mustprogress uwtable
define linkonce_odr void @_ZN5Ipopt8SmartPtrINS_16NLPScalingObjectEEC2ERKS2_(ptr noundef nonnull align 8 dereferenceable(8) %0, ptr noundef nonnull align 8 dereferenceable(8) %1) unnamed_addr #6 comdat align 2 {
  %3 = alloca ptr, align 8
  %4 = alloca ptr, align 8
  store ptr %0, ptr %3, align 8, !tbaa !207
  store ptr %1, ptr %4, align 8, !tbaa !207
  %5 = load ptr, ptr %3, align 8
  %6 = getelementptr inbounds nuw %"class.Ipopt::SmartPtr.49", ptr %5, i32 0, i32 0
  store ptr null, ptr %6, align 8, !tbaa !209
  %7 = load ptr, ptr %4, align 8, !tbaa !207
  %8 = call noundef nonnull align 8 dereferenceable(8) ptr @_ZN5Ipopt8SmartPtrINS_16NLPScalingObjectEE16SetFromSmartPtr_ERKS2_(ptr noundef nonnull align 8 dereferenceable(8) %5, ptr noundef nonnull align 8 dereferenceable(8) %7)
  ret void
}

; Function Attrs: mustprogress nounwind uwtable
define linkonce_odr void @_ZN5Ipopt8SmartPtrINS_16NLPScalingObjectEED2Ev(ptr noundef nonnull align 8 dereferenceable(8) %0) unnamed_addr #4 comdat align 2 {
  %2 = alloca ptr, align 8
  store ptr %0, ptr %2, align 8, !tbaa !207
  %3 = load ptr, ptr %2, align 8
  call void @_ZN5Ipopt8SmartPtrINS_16NLPScalingObjectEE15ReleasePointer_Ev(ptr noundef nonnull align 8 dereferenceable(8) %3)
  ret void
}

; Function Attrs: mustprogress nounwind uwtable
define linkonce_odr void @_ZN5Ipopt8SmartPtrIKNS_6VectorEED2Ev(ptr noundef nonnull align 8 dereferenceable(8) %0) unnamed_addr #4 comdat align 2 {
  %2 = alloca ptr, align 8
  store ptr %0, ptr %2, align 8, !tbaa !164
  %3 = load ptr, ptr %2, align 8
  call void @_ZN5Ipopt8SmartPtrIKNS_6VectorEE15ReleasePointer_Ev(ptr noundef nonnull align 8 dereferenceable(8) %3)
  ret void
}

; Function Attrs: mustprogress nounwind uwtable
define linkonce_odr noundef ptr @_ZNK5Ipopt8SmartPtrINS_16NLPScalingObjectEEptEv(ptr noundef nonnull align 8 dereferenceable(8) %0) #4 comdat align 2 {
  %2 = alloca ptr, align 8
  store ptr %0, ptr %2, align 8, !tbaa !207
  %3 = load ptr, ptr %2, align 8
  %4 = getelementptr inbounds nuw %"class.Ipopt::SmartPtr.49", ptr %3, i32 0, i32 0
  %5 = load ptr, ptr %4, align 8, !tbaa !209
  ret ptr %5
}

; Function Attrs: mustprogress uwtable
define linkonce_odr void @_ZNK5Ipopt8IpoptNLP11NLP_scalingEv(ptr dead_on_unwind noalias writable sret(%"class.Ipopt::SmartPtr.49") align 8 %0, ptr noundef nonnull align 8 dereferenceable(24) %1) #6 comdat align 2 {
  %3 = alloca ptr, align 8
  %4 = alloca ptr, align 8
  store ptr %0, ptr %3, align 8
  store ptr %1, ptr %4, align 8, !tbaa !206
  %5 = load ptr, ptr %4, align 8
  %6 = getelementptr inbounds nuw %"class.Ipopt::IpoptNLP", ptr %5, i32 0, i32 1
  call void @_ZN5Ipopt8SmartPtrINS_16NLPScalingObjectEEC2ERKS2_(ptr noundef nonnull align 8 dereferenceable(8) %0, ptr noundef nonnull align 8 dereferenceable(8) %6)
  ret void
}

; Function Attrs: mustprogress nounwind uwtable
define linkonce_odr noundef ptr @_ZNK5Ipopt8SmartPtrINS_8IpoptNLPEEptEv(ptr noundef nonnull align 8 dereferenceable(8) %0) #4 comdat align 2 {
  %2 = alloca ptr, align 8
  store ptr %0, ptr %2, align 8, !tbaa !14
  %3 = load ptr, ptr %2, align 8
  %4 = getelementptr inbounds nuw %"class.Ipopt::SmartPtr.10", ptr %3, i32 0, i32 0
  %5 = load ptr, ptr %4, align 8, !tbaa !54
  ret ptr %5
}

; Function Attrs: mustprogress uwtable
define void @_ZN5Ipopt25IpoptCalculatedQuantities15unscaled_curr_cEv(ptr dead_on_unwind noalias writable sret(%"class.Ipopt::SmartPtr.44") align 8 %0, ptr noundef nonnull align 8 dereferenceable(2185) %1) #6 align 2 personality ptr @__gxx_personality_v0 {
  %3 = alloca ptr, align 8
  %4 = alloca ptr, align 8
  %5 = alloca %"class.Ipopt::SmartPtr.49", align 8
  %6 = alloca ptr, align 8
  %7 = alloca i32, align 4
  %8 = alloca %"class.Ipopt::SmartPtr.44", align 8
  store ptr %0, ptr %3, align 8
  store ptr %1, ptr %4, align 8, !tbaa !12
  %9 = load ptr, ptr %4, align 8
  call void @llvm.lifetime.start.p0(i64 8, ptr %5) #3
  %10 = getelementptr inbounds nuw %"class.Ipopt::IpoptCalculatedQuantities", ptr %9, i32 0, i32 2
  %11 = call noundef ptr @_ZNK5Ipopt8SmartPtrINS_8IpoptNLPEEptEv(ptr noundef nonnull align 8 dereferenceable(8) %10)
  call void @_ZNK5Ipopt8IpoptNLP11NLP_scalingEv(ptr dead_on_unwind writable sret(%"class.Ipopt::SmartPtr.49") align 8 %5, ptr noundef nonnull align 8 dereferenceable(24) %11)
  %12 = invoke noundef ptr @_ZNK5Ipopt8SmartPtrINS_16NLPScalingObjectEEptEv(ptr noundef nonnull align 8 dereferenceable(8) %5)
          to label %13 unwind label %19

13:                                               ; preds = %2
  call void @llvm.lifetime.start.p0(i64 8, ptr %8) #3
  invoke void @_ZN5Ipopt25IpoptCalculatedQuantities6curr_cEv(ptr dead_on_unwind writable sret(%"class.Ipopt::SmartPtr.44") align 8 %8, ptr noundef nonnull align 8 dereferenceable(2185) %9)
          to label %14 unwind label %23

14:                                               ; preds = %13
  %15 = load ptr, ptr %12, align 8, !tbaa !18
  %16 = getelementptr inbounds ptr, ptr %15, i64 9
  %17 = load ptr, ptr %16, align 8
  invoke void %17(ptr dead_on_unwind writable sret(%"class.Ipopt::SmartPtr.44") align 8 %0, ptr noundef nonnull align 8 dereferenceable(24) %12, ptr noundef nonnull align 8 dereferenceable(8) %8)
          to label %18 unwind label %27

18:                                               ; preds = %14
  call void @_ZN5Ipopt8SmartPtrIKNS_6VectorEED2Ev(ptr noundef nonnull align 8 dereferenceable(8) %8) #3
  call void @llvm.lifetime.end.p0(i64 8, ptr %8) #3
  call void @_ZN5Ipopt8SmartPtrINS_16NLPScalingObjectEED2Ev(ptr noundef nonnull align 8 dereferenceable(8) %5) #3
  call void @llvm.lifetime.end.p0(i64 8, ptr %5) #3
  ret void

19:                                               ; preds = %2
  %20 = landingpad { ptr, i32 }
          cleanup
  %21 = extractvalue { ptr, i32 } %20, 0
  store ptr %21, ptr %6, align 8
  %22 = extractvalue { ptr, i32 } %20, 1
  store i32 %22, ptr %7, align 4
  br label %32

23:                                               ; preds = %13
  %24 = landingpad { ptr, i32 }
          cleanup
  %25 = extractvalue { ptr, i32 } %24, 0
  store ptr %25, ptr %6, align 8
  %26 = extractvalue { ptr, i32 } %24, 1
  store i32 %26, ptr %7, align 4
  br label %31

27:                                               ; preds = %14
  %28 = landingpad { ptr, i32 }
          cleanup
  %29 = extractvalue { ptr, i32 } %28, 0
  store ptr %29, ptr %6, align 8
  %30 = extractvalue { ptr, i32 } %28, 1
  store i32 %30, ptr %7, align 4
  call void @_ZN5Ipopt8SmartPtrIKNS_6VectorEED2Ev(ptr noundef nonnull align 8 dereferenceable(8) %8) #3
  br label %31

31:                                               ; preds = %27, %23
  call void @llvm.lifetime.end.p0(i64 8, ptr %8) #3
  br label %32

32:                                               ; preds = %31, %19
  call void @_ZN5Ipopt8SmartPtrINS_16NLPScalingObjectEED2Ev(ptr noundef nonnull align 8 dereferenceable(8) %5) #3
  call void @llvm.lifetime.end.p0(i64 8, ptr %5) #3
  br label %33

33:                                               ; preds = %32
  %34 = load ptr, ptr %6, align 8
  %35 = load i32, ptr %7, align 4
  %36 = insertvalue { ptr, i32 } poison, ptr %34, 0
  %37 = insertvalue { ptr, i32 } %36, i32 %35, 1
  resume { ptr, i32 } %37
}